; Function Attrs: mustprogress nounwind uwtable
define void @_ZN3zmq12ws_decoder_tD2Ev(ptr noundef nonnull align 8 dereferenceable(208) %this) unnamed_addr #7 align 2 personality ptr @__gxx_personality_v0 {
entry:
  %_in_progress = getelementptr inbounds i8, ptr %this, i64 104
  %call = invoke noundef i32 @_ZN3zmq5msg_t5closeEv(ptr noundef nonnull align 8 dereferenceable(64) %_in_progress)
          to label %invoke.cont unwind label %terminate.lpad

invoke.cont:                                      ; preds = %entry
  %cmp.not = icmp eq i32 %call, 0
  br i1 %cmp.not, label %do.end, label %if.then

if.then:                                          ; preds = %invoke.cont
  %call2 = tail call ptr @__errno_location() #14
  %0 = load i32, ptr %call2, align 4
  %call3 = tail call ptr @strerror(i32 noundef %0) #13
  %1 = load ptr, ptr @stderr, align 8
  %call5 = tail call i32 (ptr, ptr, ...) @fprintf(ptr noundef %1, ptr noundef nonnull @.str, ptr noundef %call3, ptr noundef nonnull @.str.1, i32 noundef 36) #15
  %2 = load ptr, ptr @stderr, align 8
  %call7 = tail call i32 @fflush(ptr noundef %2)
  invoke void @_ZN3zmq9zmq_abortEPKc(ptr noundef %call3)
          to label %do.end unwind label %terminate.lpad

do.end:                                           ; preds = %if.then, %invoke.cont
  store ptr getelementptr inbounds ({ [8 x ptr] }, ptr @_ZTVN3zmq14decoder_base_tINS_12ws_decoder_tENS_31shared_message_memory_allocatorEEE, i64 0, i32 0, i64 2), ptr %this, align 8
  %_allocator.i = getelementptr inbounds i8, ptr %this, i64 40
  invoke void @_ZN3zmq31shared_message_memory_allocator10deallocateEv(ptr noundef nonnull align 8 dereferenceable(40) %_allocator.i)
          to label %_ZN3zmq14decoder_base_tINS_12ws_decoder_tENS_31shared_message_memory_allocatorEED2Ev.exit unwind label %terminate.lpad.i

terminate.lpad.i:                                 ; preds = %do.end
  %3 = landingpad { ptr, i32 }
          catch ptr null
  %4 = extractvalue { ptr, i32 } %3, 0
  tail call void @__clang_call_terminate(ptr %4) #16
  unreachable

_ZN3zmq14decoder_base_tINS_12ws_decoder_tENS_31shared_message_memory_allocatorEED2Ev.exit: ; preds = %do.end
  tail call void @_ZN3zmq31shared_message_memory_allocatorD1Ev(ptr noundef nonnull align 8 dereferenceable(40) %_allocator.i) #13
  ret void

terminate.lpad:                                   ; preds = %if.then, %entry
  %5 = landingpad { ptr, i32 }
          catch ptr null
  %6 = extractvalue { ptr, i32 } %5, 0
  tail call void @__clang_call_terminate(ptr %6) #16
  unreachable
}